; Function Attrs: mustprogress nofree norecurse nosync nounwind willreturn memory(argmem: read) uwtable
define hidden noundef i32 @_Z5none2P10NoneTester(ptr noundef readonly %0) #4 {
  %.not = icmp eq ptr %0, null
  br i1 %.not, label %4, label %2

2:                                                ; preds = %1
  %3 = load i32, ptr %0, align 4
  br label %4

4:                                                ; preds = %1, %2
  %5 = phi i32 [ %3, %2 ], [ -1, %1 ]
  ret i32 %5
}